target datalayout = "e-m:e-p270:32:32-p271:32:32-p272:64:64-i64:64-i128:128-f80:128-n8:16:32:64-S128"
target triple = "x86_64-pc-linux-gnu"

%struct.cbuf = type { %union.pthread_mutex_t, i32, i32, i32, i32, i32, i32, i32, i32, i32, i32, ptr }
%union.pthread_mutex_t = type { %struct.__pthread_mutex_s }
%struct.__pthread_mutex_s = type { i32, i32, i32, i32, i32, i16, i16, %struct.__pthread_internal_list }
%struct.__pthread_internal_list = type { ptr, ptr }

@.str = private unnamed_addr constant [7 x i8] c"cbuf.c\00", align 1
@__func__.cbuf_create = private unnamed_addr constant [12 x i8] c"cbuf_create\00", align 1
@.str.1 = private unnamed_addr constant [29 x i8] c"%s: pthread_mutex_init(): %m\00", align 1

; Function Attrs: nounwind uwtable
define dso_local ptr @cbuf_create(i32 noundef %0, i32 noundef %1) #0 {
  %3 = alloca ptr, align 8
  %4 = alloca i32, align 4
  %5 = alloca i32, align 4
  %6 = alloca ptr, align 8
  %7 = alloca i32, align 4
  %8 = alloca i32, align 4
  store i32 %0, ptr %4, align 4
  store i32 %1, ptr %5, align 4
  call void @llvm.lifetime.start.p0(i64 8, ptr %6) #8
  %9 = load i32, ptr %4, align 4
  %10 = icmp sle i32 %9, 0
  br i1 %10, label %11, label %13

11:                                               ; preds = %2
  %12 = call ptr @__errno_location() #9
  store i32 22, ptr %12, align 4
  store ptr null, ptr %3, align 8
  store i32 1, ptr %7, align 4
  br label %68

13:                                               ; preds = %2
  %14 = call ptr @slurm_xcalloc(i64 noundef 1, i64 noundef 88, i1 noundef zeroext true, i1 noundef zeroext false, ptr noundef @.str, i32 noundef 127, ptr noundef @__func__.cbuf_create)
  store ptr %14, ptr %6, align 8
  %15 = load i32, ptr %4, align 4
  %16 = add nsw i32 %15, 1
  %17 = load ptr, ptr %6, align 8
  %18 = getelementptr inbounds nuw %struct.cbuf, ptr %17, i32 0, i32 1
  store i32 %16, ptr %18, align 8
  %19 = load ptr, ptr %6, align 8
  %20 = getelementptr inbounds nuw %struct.cbuf, ptr %19, i32 0, i32 1
  %21 = load i32, ptr %20, align 8
  %22 = sext i32 %21 to i64
  %23 = call ptr @slurm_xcalloc(i64 noundef 1, i64 noundef %22, i1 noundef zeroext true, i1 noundef zeroext false, ptr noundef @.str, i32 noundef 140, ptr noundef @__func__.cbuf_create)
  %24 = load ptr, ptr %6, align 8
  %25 = getelementptr inbounds nuw %struct.cbuf, ptr %24, i32 0, i32 11
  store ptr %23, ptr %25, align 8
  br label %26

26:                                               ; preds = %13
  call void @llvm.lifetime.start.p0(i64 4, ptr %8) #8
  %27 = load ptr, ptr %6, align 8
  %28 = getelementptr inbounds nuw %struct.cbuf, ptr %27, i32 0, i32 0
  %29 = call i32 @pthread_mutex_init(ptr noundef %28, ptr noundef null) #8
  store i32 %29, ptr %8, align 4
  %30 = load i32, ptr %8, align 4
  %31 = icmp ne i32 %30, 0
  br i1 %31, label %32, label %35

32:                                               ; preds = %26
  %33 = load i32, ptr %8, align 4
  %34 = call ptr @__errno_location() #9
  store i32 %33, ptr %34, align 4
  call void (ptr, ...) @fatal_abort(ptr noundef @.str.1, ptr noundef @__func__.cbuf_create) #10
  unreachable

35:                                               ; preds = %26
  call void @llvm.lifetime.end.p0(i64 4, ptr %8) #8
  br label %36

36:                                               ; preds = %35
  br label %37

37:                                               ; preds = %36
  %38 = load i32, ptr %4, align 4
  %39 = load ptr, ptr %6, align 8
  %40 = getelementptr inbounds nuw %struct.cbuf, ptr %39, i32 0, i32 2
  store i32 %38, ptr %40, align 4
  %41 = load i32, ptr %5, align 4
  %42 = load i32, ptr %4, align 4
  %43 = icmp sgt i32 %41, %42
  br i1 %43, label %44, label %46

44:                                               ; preds = %37
  %45 = load i32, ptr %5, align 4
  br label %48

46:                                               ; preds = %37
  %47 = load i32, ptr %4, align 4
  br label %48

48:                                               ; preds = %46, %44
  %49 = phi i32 [ %45, %44 ], [ %47, %46 ]
  %50 = load ptr, ptr %6, align 8
  %51 = getelementptr inbounds nuw %struct.cbuf, ptr %50, i32 0, i32 3
  store i32 %49, ptr %51, align 8
  %52 = load i32, ptr %4, align 4
  %53 = load ptr, ptr %6, align 8
  %54 = getelementptr inbounds nuw %struct.cbuf, ptr %53, i32 0, i32 4
  store i32 %52, ptr %54, align 4
  %55 = load ptr, ptr %6, align 8
  %56 = getelementptr inbounds nuw %struct.cbuf, ptr %55, i32 0, i32 5
  store i32 0, ptr %56, align 8
  %57 = load ptr, ptr %6, align 8
  %58 = getelementptr inbounds nuw %struct.cbuf, ptr %57, i32 0, i32 6
  store i32 2, ptr %58, align 4
  %59 = load ptr, ptr %6, align 8
  %60 = getelementptr inbounds nuw %struct.cbuf, ptr %59, i32 0, i32 7
  store i32 0, ptr %60, align 8
  %61 = load ptr, ptr %6, align 8
  %62 = getelementptr inbounds nuw %struct.cbuf, ptr %61, i32 0, i32 10
  store i32 0, ptr %62, align 4
  %63 = load ptr, ptr %6, align 8
  %64 = getelementptr inbounds nuw %struct.cbuf, ptr %63, i32 0, i32 9
  store i32 0, ptr %64, align 8
  %65 = load ptr, ptr %6, align 8
  %66 = getelementptr inbounds nuw %struct.cbuf, ptr %65, i32 0, i32 8
  store i32 0, ptr %66, align 4
  %67 = load ptr, ptr %6, align 8
  store ptr %67, ptr %3, align 8
  store i32 1, ptr %7, align 4
  br label %68

68:                                               ; preds = %48, %11
  call void @llvm.lifetime.end.p0(i64 8, ptr %6) #8
  %69 = load ptr, ptr %3, align 8
  ret ptr %69
}