; Function Attrs: nounwind uwtable
define dso_local ptr @cbuf_create(i32 noundef %0, i32 noundef %1) local_unnamed_addr #0 {
  %3 = icmp slt i32 %0, 1
  br i1 %3, label %4, label %6

4:                                                ; preds = %2
  %5 = tail call ptr @__errno_location() #14
  store i32 22, ptr %5, align 4
  br label %24

6:                                                ; preds = %2
  %7 = tail call ptr @slurm_xcalloc(i64 noundef 1, i64 noundef 88, i1 noundef zeroext true, i1 noundef zeroext false, ptr noundef nonnull @.str, i32 noundef 127, ptr noundef nonnull @__func__.cbuf_create) #15
  %8 = add nuw nsw i32 %0, 1
  %9 = getelementptr inbounds nuw i8, ptr %7, i64 40
  store i32 %8, ptr %9, align 8
  %10 = zext nneg i32 %8 to i64
  %11 = tail call ptr @slurm_xcalloc(i64 noundef 1, i64 noundef %10, i1 noundef zeroext true, i1 noundef zeroext false, ptr noundef nonnull @.str, i32 noundef 140, ptr noundef nonnull @__func__.cbuf_create) #15
  %12 = getelementptr inbounds nuw i8, ptr %7, i64 80
  store ptr %11, ptr %12, align 8
  %13 = tail call i32 @pthread_mutex_init(ptr noundef %7, ptr noundef null) #15
  %.not = icmp eq i32 %13, 0
  br i1 %.not, label %16, label %14

14:                                               ; preds = %6
  %15 = tail call ptr @__errno_location() #14
  store i32 %13, ptr %15, align 4
  tail call void (ptr, ...) @fatal_abort(ptr noundef nonnull @.str.1, ptr noundef nonnull @__func__.cbuf_create) #16
  unreachable

16:                                               ; preds = %6
  %17 = getelementptr inbounds nuw i8, ptr %7, i64 44
  store i32 %0, ptr %17, align 4
  %18 = tail call i32 @llvm.smax.i32(i32 %1, i32 %0)
  %19 = getelementptr inbounds nuw i8, ptr %7, i64 48
  store i32 %18, ptr %19, align 8
  %20 = getelementptr inbounds nuw i8, ptr %7, i64 52
  store i32 %0, ptr %20, align 4
  %21 = getelementptr inbounds nuw i8, ptr %7, i64 56
  store i32 0, ptr %21, align 8
  %22 = getelementptr inbounds nuw i8, ptr %7, i64 60
  store i32 2, ptr %22, align 4
  %23 = getelementptr inbounds nuw i8, ptr %7, i64 64
  tail call void @llvm.memset.p0.i64(ptr noundef nonnull align 8 dereferenceable(16) %23, i8 0, i64 16, i1 false)
  br label %24

24:                                               ; preds = %16, %4
  %.0 = phi ptr [ null, %4 ], [ %7, %16 ]
  ret ptr %.0
}